target datalayout = "e-m:e-p270:32:32-p271:32:32-p272:64:64-i64:64-i128:128-f80:128-n8:16:32:64-S128"
target triple = "x86_64-pc-linux-gnu"

%struct._object = type { %union.anon, ptr }
%union.anon = type { i64 }
%struct.PyVarObject = type { %struct._object, i64 }
%struct.PyASCIIObject = type { %struct._object, i64, i64, %struct.anon.46 }
%struct.anon.46 = type { i16, i16 }
%struct._typeobject = type { %struct.PyVarObject, ptr, i64, i64, ptr, i64, ptr, ptr, ptr, ptr, ptr, ptr, ptr, ptr, ptr, ptr, ptr, ptr, ptr, i64, ptr, ptr, ptr, ptr, i64, ptr, ptr, ptr, ptr, ptr, ptr, ptr, ptr, ptr, i64, ptr, ptr, ptr, ptr, ptr, ptr, ptr, ptr, ptr, ptr, ptr, i32, ptr, ptr, i8, i16 }
%struct.stringio = type { %struct._object, ptr, i64, i64, i64, i32, ptr, i8, i8, i8, i8, ptr, ptr, ptr, ptr, ptr, ptr }

@PyExc_ValueError = external global ptr, align 8
@.str.2 = private unnamed_addr constant [38 x i8] c"I/O operation on uninitialized object\00", align 1
@.str.3 = private unnamed_addr constant [29 x i8] c"I/O operation on closed file\00", align 1
@PyExc_TypeError = external global ptr, align 8
@.str.24 = private unnamed_addr constant [35 x i8] c"string argument expected, got '%s'\00", align 1

; Function Attrs: inlinehint nounwind uwtable
define internal i64 @PyUnicode_GET_LENGTH(ptr noundef %0) #2 {
  %2 = alloca ptr, align 8
  store ptr %0, ptr %2, align 8, !tbaa !37
  %3 = load ptr, ptr %2, align 8, !tbaa !37
  %4 = getelementptr inbounds nuw %struct.PyASCIIObject, ptr %3, i32 0, i32 1
  %5 = load i64, ptr %4, align 8, !tbaa !58
  ret i64 %5
}

; Function Attrs: inlinehint nounwind uwtable
define internal i32 @PyType_HasFeature(ptr noundef %0, i64 noundef %1) #2 {
  %3 = alloca ptr, align 8
  %4 = alloca i64, align 8
  %5 = alloca i64, align 8
  store ptr %0, ptr %3, align 8, !tbaa !8
  store i64 %1, ptr %4, align 8, !tbaa !43
  call void @llvm.lifetime.start.p0(i64 8, ptr %5) #7
  %6 = load ptr, ptr %3, align 8, !tbaa !8
  %7 = getelementptr inbounds nuw %struct._typeobject, ptr %6, i32 0, i32 19
  %8 = load i64, ptr %7, align 8, !tbaa !57
  store i64 %8, ptr %5, align 8, !tbaa !43
  %9 = load i64, ptr %5, align 8, !tbaa !43
  %10 = load i64, ptr %4, align 8, !tbaa !43
  %11 = and i64 %9, %10
  %12 = icmp ne i64 %11, 0
  %13 = zext i1 %12 to i32
  call void @llvm.lifetime.end.p0(i64 8, ptr %5) #7
  ret i32 %13
}

; Function Attrs: inlinehint nounwind uwtable
define internal ptr @_Py_TYPE(ptr noundef %0) #2 {
  %2 = alloca ptr, align 8
  store ptr %0, ptr %2, align 8, !tbaa !37
  %3 = load ptr, ptr %2, align 8, !tbaa !37
  %4 = getelementptr inbounds nuw %struct._object, ptr %3, i32 0, i32 1
  %5 = load ptr, ptr %4, align 8, !tbaa !45
  ret ptr %5
}

; Function Attrs: nounwind uwtable
define internal ptr @_io_StringIO_write_impl(ptr noundef %0, ptr noundef %1) #0 {
  %3 = alloca ptr, align 8
  %4 = alloca ptr, align 8
  %5 = alloca ptr, align 8
  %6 = alloca i64, align 8
  %7 = alloca i32, align 4
  store ptr %0, ptr %4, align 8, !tbaa !4
  store ptr %1, ptr %5, align 8, !tbaa !37
  call void @llvm.lifetime.start.p0(i64 8, ptr %6) #7
  %8 = load ptr, ptr %4, align 8, !tbaa !4
  %9 = getelementptr inbounds nuw %struct.stringio, ptr %8, i32 0, i32 7
  %10 = load i8, ptr %9, align 8, !tbaa !10
  %11 = sext i8 %10 to i32
  %12 = icmp sle i32 %11, 0
  br i1 %12, label %13, label %15

13:                                               ; preds = %2
  %14 = load ptr, ptr @PyExc_ValueError, align 8, !tbaa !37
  call void @PyErr_SetString(ptr noundef %14, ptr noundef @.str.2)
  store ptr null, ptr %3, align 8
  store i32 1, ptr %7, align 4
  br label %48

15:                                               ; preds = %2
  %16 = load ptr, ptr %5, align 8, !tbaa !37
  %17 = call ptr @_Py_TYPE(ptr noundef %16)
  %18 = call i32 @PyType_HasFeature(ptr noundef %17, i64 noundef 268435456)
  %19 = icmp ne i32 %18, 0
  br i1 %19, label %27, label %20

20:                                               ; preds = %15
  %21 = load ptr, ptr @PyExc_TypeError, align 8, !tbaa !37
  %22 = load ptr, ptr %5, align 8, !tbaa !37
  %23 = call ptr @_Py_TYPE(ptr noundef %22)
  %24 = getelementptr inbounds nuw %struct._typeobject, ptr %23, i32 0, i32 1
  %25 = load ptr, ptr %24, align 8, !tbaa !42
  %26 = call ptr (ptr, ptr, ...) @PyErr_Format(ptr noundef %21, ptr noundef @.str.24, ptr noundef %25)
  store ptr null, ptr %3, align 8
  store i32 1, ptr %7, align 4
  br label %48

27:                                               ; preds = %15
  %28 = load ptr, ptr %4, align 8, !tbaa !4
  %29 = getelementptr inbounds nuw %struct.stringio, ptr %28, i32 0, i32 8
  %30 = load i8, ptr %29, align 1, !tbaa !38
  %31 = icmp ne i8 %30, 0
  br i1 %31, label %32, label %34

32:                                               ; preds = %27
  %33 = load ptr, ptr @PyExc_ValueError, align 8, !tbaa !37
  call void @PyErr_SetString(ptr noundef %33, ptr noundef @.str.3)
  store ptr null, ptr %3, align 8
  store i32 1, ptr %7, align 4
  br label %48

34:                                               ; preds = %27
  %35 = load ptr, ptr %5, align 8, !tbaa !37
  %36 = call i64 @PyUnicode_GET_LENGTH(ptr noundef %35)
  store i64 %36, ptr %6, align 8, !tbaa !43
  %37 = load i64, ptr %6, align 8, !tbaa !43
  %38 = icmp sgt i64 %37, 0
  br i1 %38, label %39, label %45

39:                                               ; preds = %34
  %40 = load ptr, ptr %4, align 8, !tbaa !4
  %41 = load ptr, ptr %5, align 8, !tbaa !37
  %42 = call i64 @write_str(ptr noundef %40, ptr noundef %41)
  %43 = icmp slt i64 %42, 0
  br i1 %43, label %44, label %45

44:                                               ; preds = %39
  store ptr null, ptr %3, align 8
  store i32 1, ptr %7, align 4
  br label %48

45:                                               ; preds = %39, %34
  %46 = load i64, ptr %6, align 8, !tbaa !43
  %47 = call ptr @PyLong_FromSsize_t(i64 noundef %46)
  store ptr %47, ptr %3, align 8
  store i32 1, ptr %7, align 4
  br label %48

48:                                               ; preds = %45, %44, %32, %20, %13
  call void @llvm.lifetime.end.p0(i64 8, ptr %6) #7
  %49 = load ptr, ptr %3, align 8
  ret ptr %49
}

; Function Attrs: nounwind uwtable
define internal ptr @_io_StringIO_write(ptr noundef %0, ptr noundef %1) #0 {
  %3 = alloca ptr, align 8
  %4 = alloca ptr, align 8
  %5 = alloca ptr, align 8
  store ptr %0, ptr %3, align 8, !tbaa !4
  store ptr %1, ptr %4, align 8, !tbaa !37
  call void @llvm.lifetime.start.p0(i64 8, ptr %5) #7
  store ptr null, ptr %5, align 8, !tbaa !37
  %6 = load ptr, ptr %3, align 8, !tbaa !4
  %7 = load ptr, ptr %4, align 8, !tbaa !37
  %8 = call ptr @_io_StringIO_write_impl(ptr noundef %6, ptr noundef %7)
  store ptr %8, ptr %5, align 8, !tbaa !37
  %9 = load ptr, ptr %5, align 8, !tbaa !37
  call void @llvm.lifetime.end.p0(i64 8, ptr %5) #7
  ret ptr %9
}