; Function Attrs: nounwind uwtable
define internal ptr @_io_StringIO_write(ptr noundef captures(none) %0, ptr noundef %1) #0 {
  %3 = getelementptr inbounds nuw i8, ptr %0, i64 64
  %4 = load i8, ptr %3, align 8, !tbaa !14
  %5 = icmp slt i8 %4, 1
  br i1 %5, label %6, label %8

6:                                                ; preds = %2
  %7 = load ptr, ptr @PyExc_ValueError, align 8, !tbaa !37
  tail call void @PyErr_SetString(ptr noundef %7, ptr noundef nonnull @.str.2) #6
  br label %_io_StringIO_write_impl.exit

8:                                                ; preds = %2
  %9 = getelementptr i8, ptr %1, i64 8
  %.val10.i = load ptr, ptr %9, align 8, !tbaa !4
  %10 = getelementptr i8, ptr %.val10.i, i64 168
  %.val11.i = load i64, ptr %10, align 8, !tbaa !47
  %11 = and i64 %.val11.i, 268435456
  %.not.i = icmp eq i64 %11, 0
  br i1 %.not.i, label %12, label %17

12:                                               ; preds = %8
  %13 = load ptr, ptr @PyExc_TypeError, align 8, !tbaa !37
  %14 = getelementptr inbounds nuw i8, ptr %.val10.i, i64 24
  %15 = load ptr, ptr %14, align 8, !tbaa !48
  %16 = tail call ptr (ptr, ptr, ...) @PyErr_Format(ptr noundef %13, ptr noundef nonnull @.str.24, ptr noundef %15) #6
  br label %_io_StringIO_write_impl.exit

17:                                               ; preds = %8
  %18 = getelementptr inbounds nuw i8, ptr %0, i64 65
  %19 = load i8, ptr %18, align 1, !tbaa !38
  %.not9.i = icmp eq i8 %19, 0
  br i1 %.not9.i, label %22, label %20

20:                                               ; preds = %17
  %21 = load ptr, ptr @PyExc_ValueError, align 8, !tbaa !37
  tail call void @PyErr_SetString(ptr noundef %21, ptr noundef nonnull @.str.3) #6
  br label %_io_StringIO_write_impl.exit

22:                                               ; preds = %17
  %23 = getelementptr i8, ptr %1, i64 16
  %.val12.i = load i64, ptr %23, align 8, !tbaa !49
  %24 = icmp sgt i64 %.val12.i, 0
  br i1 %24, label %25, label %28

25:                                               ; preds = %22
  %26 = tail call fastcc i64 @write_str(ptr noundef nonnull %0, ptr noundef nonnull %1)
  %27 = icmp slt i64 %26, 0
  br i1 %27, label %_io_StringIO_write_impl.exit, label %28

28:                                               ; preds = %25, %22
  %29 = tail call ptr @PyLong_FromSsize_t(i64 noundef %.val12.i) #6
  br label %_io_StringIO_write_impl.exit

_io_StringIO_write_impl.exit:                     ; preds = %6, %12, %20, %25, %28
  %.0.i = phi ptr [ null, %6 ], [ null, %20 ], [ %29, %28 ], [ null, %12 ], [ null, %25 ]
  ret ptr %.0.i
}